	.file	"main.c"
__SREG__ = 0x3f
__SP_H__ = 0x3e
__SP_L__ = 0x3d
__CCP__ = 0x3c
__tmp_reg__ = 16
__zero_reg__ = 17
	.global __do_copy_data
	.global __do_clear_bss
	.text
.Ltext0:
	.cfi_sections	.debug_frame
.global	init
	.type	init, @function
init:
.LFB8:
	.file 1 "main.c"
	.loc 1 87 0
	.cfi_startproc
/* prologue: function */
/* frame size = 0 */
/* stack size = 0 */
.L__stack_usage = 0
	.loc 1 90 0
	out 55-0,__zero_reg__
	.loc 1 91 0
	out 57-0,__zero_reg__
	.loc 1 92 0
	out 54-0,__zero_reg__
	.loc 1 97 0
	out 46-0,__zero_reg__
	.loc 1 98 0
	out 45-0,__zero_reg__
	.loc 1 99 0
	ldi r24,lo8(3)
	out 43-0,r24
	.loc 1 102 0
	ldi r24,lo8(208)
	ldi r25,hi8(208)
	out 38+1-0,r25
	out 38-0,r24
	.loc 1 111 0
	sts sample_state,__zero_reg__
/* epilogue start */
	.loc 1 113 0
	ret
	.cfi_endproc
.LFE8:
	.size	init, .-init
	.section	.text.startup,"ax",@progbits
.global	main
	.type	main, @function
main:
.LFB6:
	.loc 1 55 0
	.cfi_startproc
/* prologue: function */
/* frame size = 0 */
/* stack size = 0 */
.L__stack_usage = 0
	.loc 1 57 0
	rcall init
.L3:
	rjmp .L3
	.cfi_endproc
.LFE6:
	.size	main, .-main
	.text
.global	__vector_6
	.type	__vector_6, @function
__vector_6:
.LFB9:
	.loc 1 142 0
	.cfi_startproc
	push r17
.LCFI0:
	.cfi_def_cfa_offset 3
	.cfi_offset 17, -2
	push r16
.LCFI1:
	.cfi_def_cfa_offset 4
	.cfi_offset 16, -3
	in r16,__SREG__
	push r16
	ldi __zero_reg__,lo8(0)
/* prologue: Signal */
/* frame size = 0 */
/* stack size = 3 */
.L__stack_usage = 3
	.loc 1 144 0
	sbi 18-0,0
	.loc 1 146 0
	cbi 1-0,2
/* epilogue start */
	.loc 1 149 0
	pop r16
	out __SREG__,r16
	pop r16
	pop r17
	reti
	.cfi_endproc
.LFE9:
	.size	__vector_6, .-__vector_6
.global	__vector_5
	.type	__vector_5, @function
__vector_5:
.LFB10:
	.loc 1 153 0
	.cfi_startproc
	push r17
.LCFI2:
	.cfi_def_cfa_offset 3
	.cfi_offset 17, -2
	push r16
.LCFI3:
	.cfi_def_cfa_offset 4
	.cfi_offset 16, -3
	in r16,__SREG__
	push r16
	ldi __zero_reg__,lo8(0)
	push r24
.LCFI4:
	.cfi_def_cfa_offset 5
	.cfi_offset 24, -4
	push r25
.LCFI5:
	.cfi_def_cfa_offset 6
	.cfi_offset 25, -5
/* prologue: Signal */
/* frame size = 0 */
/* stack size = 5 */
.L__stack_usage = 5
	.loc 1 156 0
	in r24,0-0
	andi r24,lo8(1)
	sts rx_in,r24
	.loc 1 160 0
	in r24,38-0
	in r25,38+1-0
	subi r24,lo8(-(417))
	sbci r25,hi8(-(417))
	out 38+1-0,r25
	out 38-0,r24
/* epilogue start */
	.loc 1 162 0
	pop r25
	pop r24
	pop r16
	out __SREG__,r16
	pop r16
	pop r17
	reti
	.cfi_endproc
.LFE10:
	.size	__vector_5, .-__vector_5
	.comm tx_out,1,1
	.comm rx_in,1,1
	.comm bit_nr,1,1
	.comm tx_state,1,1
	.comm rx_state,1,1
	.comm rx,4,1
	.comm tx,4,1
	.comm sample_state,1,1
	.comm cur_meas,2,1
.Letext0:
	.file 2 "/opt/cross/avr/bin/../lib/gcc/avr/4.6.2/../../../../avr/include/stdint.h"